target datalayout = "e-m:e-p270:32:32-p271:32:32-p272:64:64-i64:64-i128:128-f80:128-n8:16:32:64-S128"
target triple = "x86_64-pc-linux-gnu"

; Function Attrs: nounwind uwtable
define dso_local void @makeTwistedTorus(i32 noundef %0, i32 noundef %1, i32 noundef %2, i32 noundef %3, ptr noundef %4) #0 {
  %6 = alloca i32, align 4
  %7 = alloca i32, align 4
  %8 = alloca i32, align 4
  %9 = alloca i32, align 4
  %10 = alloca ptr, align 8
  %11 = alloca i32, align 4
  %12 = alloca i32, align 4
  %13 = alloca i32, align 4
  %14 = alloca i32, align 4
  %15 = alloca i32, align 4
  store i32 %0, ptr %6, align 4, !tbaa !4
  store i32 %1, ptr %7, align 4, !tbaa !4
  store i32 %2, ptr %8, align 4, !tbaa !4
  store i32 %3, ptr %9, align 4, !tbaa !4
  store ptr %4, ptr %10, align 8, !tbaa !8
  call void @llvm.lifetime.start.p0(i64 4, ptr %11) #11
  store i32 0, ptr %11, align 4, !tbaa !4
  br label %16

16:                                               ; preds = %76, %5
  %17 = load i32, ptr %11, align 4, !tbaa !4
  %18 = load i32, ptr %6, align 4, !tbaa !4
  %19 = icmp ult i32 %17, %18
  br i1 %19, label %21, label %20

20:                                               ; preds = %16
  store i32 2, ptr %12, align 4
  call void @llvm.lifetime.end.p0(i64 4, ptr %11) #11
  br label %79

21:                                               ; preds = %16
  call void @llvm.lifetime.start.p0(i64 4, ptr %13) #11
  store i32 0, ptr %13, align 4, !tbaa !4
  br label %22

22:                                               ; preds = %72, %21
  %23 = load i32, ptr %13, align 4, !tbaa !4
  %24 = load i32, ptr %7, align 4, !tbaa !4
  %25 = icmp ult i32 %23, %24
  br i1 %25, label %27, label %26

26:                                               ; preds = %22
  store i32 5, ptr %12, align 4
  call void @llvm.lifetime.end.p0(i64 4, ptr %13) #11
  br label %75

27:                                               ; preds = %22
  call void @llvm.lifetime.start.p0(i64 4, ptr %14) #11
  %28 = load i32, ptr %11, align 4, !tbaa !4
  %29 = load i32, ptr %8, align 4, !tbaa !4
  %30 = add i32 %28, %29
  %31 = load i32, ptr %6, align 4, !tbaa !4
  %32 = urem i32 %30, %31
  store i32 %32, ptr %14, align 4, !tbaa !4
  call void @llvm.lifetime.start.p0(i64 4, ptr %15) #11
  %33 = load i32, ptr %13, align 4, !tbaa !4
  %34 = add i32 %33, 1
  %35 = load i32, ptr %7, align 4, !tbaa !4
  %36 = urem i32 %34, %35
  store i32 %36, ptr %15, align 4, !tbaa !4
  %37 = load ptr, ptr %10, align 8, !tbaa !8
  %38 = load i32, ptr %11, align 4, !tbaa !4
  %39 = load i32, ptr %13, align 4, !tbaa !4
  %40 = load i32, ptr %6, align 4, !tbaa !4
  %41 = mul i32 %39, %40
  %42 = add i32 %38, %41
  %43 = add i32 %42, 1
  %44 = load i32, ptr %14, align 4, !tbaa !4
  %45 = load i32, ptr %15, align 4, !tbaa !4
  %46 = load i32, ptr %6, align 4, !tbaa !4
  %47 = mul i32 %45, %46
  %48 = add i32 %44, %47
  %49 = add i32 %48, 1
  call void %37(i32 noundef %43, i32 noundef %49)
  %50 = load i32, ptr %11, align 4, !tbaa !4
  %51 = add i32 %50, 1
  %52 = load i32, ptr %6, align 4, !tbaa !4
  %53 = urem i32 %51, %52
  store i32 %53, ptr %14, align 4, !tbaa !4
  %54 = load i32, ptr %13, align 4, !tbaa !4
  %55 = load i32, ptr %9, align 4, !tbaa !4
  %56 = add i32 %54, %55
  %57 = load i32, ptr %7, align 4, !tbaa !4
  %58 = urem i32 %56, %57
  store i32 %58, ptr %15, align 4, !tbaa !4
  %59 = load ptr, ptr %10, align 8, !tbaa !8
  %60 = load i32, ptr %11, align 4, !tbaa !4
  %61 = load i32, ptr %13, align 4, !tbaa !4
  %62 = load i32, ptr %6, align 4, !tbaa !4
  %63 = mul i32 %61, %62
  %64 = add i32 %60, %63
  %65 = add i32 %64, 1
  %66 = load i32, ptr %14, align 4, !tbaa !4
  %67 = load i32, ptr %15, align 4, !tbaa !4
  %68 = load i32, ptr %6, align 4, !tbaa !4
  %69 = mul i32 %67, %68
  %70 = add i32 %66, %69
  %71 = add i32 %70, 1
  call void %59(i32 noundef %65, i32 noundef %71)
  call void @llvm.lifetime.end.p0(i64 4, ptr %15) #11
  call void @llvm.lifetime.end.p0(i64 4, ptr %14) #11
  br label %72

72:                                               ; preds = %27
  %73 = load i32, ptr %13, align 4, !tbaa !4
  %74 = add i32 %73, 1
  store i32 %74, ptr %13, align 4, !tbaa !4
  br label %22, !llvm.loop !25

75:                                               ; preds = %26
  br label %76

76:                                               ; preds = %75
  %77 = load i32, ptr %11, align 4, !tbaa !4
  %78 = add i32 %77, 1
  store i32 %78, ptr %11, align 4, !tbaa !4
  br label %16, !llvm.loop !26

79:                                               ; preds = %20
  ret void
}