; Function Attrs: nounwind uwtable
define dso_local void @makeTwistedTorus(i32 noundef %0, i32 noundef %1, i32 noundef %2, i32 noundef %3, ptr noundef readonly captures(none) %4) local_unnamed_addr #0 {
  %.not = icmp eq i32 %0, 0
  %.not35 = icmp eq i32 %1, 0
  %or.cond = or i1 %.not, %.not35
  br i1 %or.cond, label %._crit_edge34, label %.preheader.us

.preheader.us:                                    ; preds = %5, %._crit_edge.us
  %.033.us = phi i32 [ %8, %._crit_edge.us ], [ 0, %5 ]
  %6 = add i32 %.033.us, %2
  %7 = urem i32 %6, %0
  %8 = add nuw i32 %.033.us, 1
  %invariant.op.us = add nuw i32 %7, 1
  %9 = icmp eq i32 %8, %0
  %10 = add i32 %.033.us, 2
  %11 = select i1 %9, i32 1, i32 %10
  br label %12

12:                                               ; preds = %.preheader.us, %12
  %.02932.us = phi i32 [ 0, %.preheader.us ], [ %13, %12 ]
  %13 = add nuw i32 %.02932.us, 1
  %14 = icmp eq i32 %13, %1
  %15 = select i1 %14, i32 0, i32 %13
  %16 = mul i32 %.02932.us, %0
  %17 = add i32 %8, %16
  %18 = mul i32 %15, %0
  %.reass.us = add i32 %18, %invariant.op.us
  tail call void %4(i32 noundef %17, i32 noundef %.reass.us) #15
  %19 = add i32 %.02932.us, %3
  %20 = urem i32 %19, %1
  %21 = mul i32 %20, %0
  %22 = add i32 %11, %21
  tail call void %4(i32 noundef %17, i32 noundef %22) #15
  %exitcond.not = icmp eq i32 %13, %1
  br i1 %exitcond.not, label %._crit_edge.us, label %12, !llvm.loop !22

._crit_edge.us:                                   ; preds = %12
  %exitcond37.not = icmp eq i32 %8, %0
  br i1 %exitcond37.not, label %._crit_edge34, label %.preheader.us, !llvm.loop !23

._crit_edge34:                                    ; preds = %._crit_edge.us, %5
  ret void
}